CCS PCM C Compiler, Version 5.007, 61971               02-Haz-21 15:53

               Filename:   E:\GitHub\Yangin-Sonduren-Robot\AlevSavascisi.lst

               ROM used:   129 words (2%)
                           Largest free fragment is 2048
               RAM used:   8 (2%) at main() level
                           8 (2%) worst case
               Stack used: 0 locations
               Stack size: 8

*
0000:  MOVLW  00
0001:  MOVWF  0A
0002:  GOTO   01B
0003:  NOP
.................... #include <16F877A.h> 
.................... //////// Standard Header file for the PIC16F877A device //////////////// 
.................... #device PIC16F877A 
....................  
.................... #list 
....................  
.................... #device ADC=10 
.................... #fuses XT,NOWDT,NOPUT,NOPROTECT,NOBROWNOUT,NOLVP,NOWRT,NODEBUG,NOCPD 
.................... #use delay(clock = 4000000 ) 
.................... #use fast_io(a) 
.................... unsigned long int bilgi; 
....................  
.................... void mesafe_oku () { 
.................... set_adc_channel(0); 
0004:  MOVLW  00
0005:  MOVWF  78
0006:  MOVF   1F,W
0007:  ANDLW  C7
0008:  IORWF  78,W
0009:  MOVWF  1F
.................... delay_us(20); 
000A:  MOVLW  06
000B:  MOVWF  77
000C:  DECFSZ 77,F
000D:  GOTO   00C
000E:  NOP
.................... bilgi = read_adc(); 
000F:  BSF    1F.2
0010:  BTFSC  1F.2
0011:  GOTO   010
0012:  BSF    03.5
0013:  MOVF   1E,W
0014:  BCF    03.5
0015:  MOVWF  20
0016:  MOVF   1E,W
0017:  MOVWF  21
0018:  BCF    0A.3
0019:  BCF    0A.4
001A:  GOTO   03C (RETURN)
....................  
.................... } 
....................  
.................... void main() 
001B:  BSF    03.5
001C:  BSF    1F.0
001D:  BSF    1F.1
001E:  BSF    1F.2
001F:  BCF    1F.3
0020:  MOVLW  07
0021:  MOVWF  1C
0022:  BCF    03.7
0023:  MOVLW  1F
0024:  ANDWF  03,F
.................... { 
.................... set_tris_a(1); 
0025:  MOVLW  01
0026:  MOVWF  05
.................... set_tris_d(0); 
0027:  MOVLW  00
0028:  MOVWF  08
.................... output_d(0); 
0029:  CLRF   08
002A:  BCF    03.5
002B:  CLRF   08
.................... setup_adc(adc_clock_div_32); 
002C:  BSF    03.5
002D:  BCF    1F.6
002E:  BCF    03.5
002F:  BCF    1F.6
0030:  BSF    1F.7
0031:  BSF    03.5
0032:  BSF    1F.7
0033:  BCF    03.5
0034:  BSF    1F.0
.................... setup_adc_ports(AN0); 
0035:  BSF    03.5
0036:  BCF    1F.0
0037:  BSF    1F.1
0038:  BSF    1F.2
0039:  BSF    1F.3
....................  
....................  
....................  
.................... while (1) { 
.................... mesafe_oku (); 
003A:  BCF    03.5
003B:  GOTO   004
....................  
....................  
.................... if((204 < bilgi) && (bilgi < 700 )){ 
003C:  MOVF   21,F
003D:  BTFSS  03.2
003E:  GOTO   043
003F:  MOVF   20,W
0040:  SUBLW  CC
0041:  BTFSC  03.0
0042:  GOTO   053
0043:  MOVF   21,W
0044:  SUBLW  02
0045:  BTFSS  03.0
0046:  GOTO   053
0047:  BTFSS  03.2
0048:  GOTO   04D
0049:  MOVF   20,W
004A:  SUBLW  BB
004B:  BTFSS  03.0
004C:  GOTO   053
.................... output_d(0xA); 
004D:  BSF    03.5
004E:  CLRF   08
004F:  MOVLW  0A
0050:  BCF    03.5
0051:  MOVWF  08
.................... } 
0052:  GOTO   067
.................... else if (bilgi < 204) 
0053:  MOVF   21,F
0054:  BTFSS  03.2
0055:  GOTO   063
0056:  MOVF   20,W
0057:  SUBLW  CB
0058:  BTFSS  03.0
0059:  GOTO   063
.................... { 
.................... output_d(0); 
005A:  BSF    03.5
005B:  CLRF   08
005C:  BCF    03.5
005D:  CLRF   08
.................... output_high(pin_D0); 
005E:  BSF    03.5
005F:  BCF    08.0
0060:  BCF    03.5
0061:  BSF    08.0
.................... } 
0062:  GOTO   067
.................... else  
.................... { 
.................... output_d(0); 
0063:  BSF    03.5
0064:  CLRF   08
0065:  BCF    03.5
0066:  CLRF   08
.................... } 
....................  
....................  
....................  
.................... if(input(pin_A1) == FALSE){ 
0067:  BTFSC  05.1
0068:  GOTO   073
.................... output_high(pin_D3); 
0069:  BSF    03.5
006A:  BCF    08.3
006B:  BCF    03.5
006C:  BSF    08.3
.................... while(!(input(pin_A1)))  //sensor 1 olana kadar islem yapma 
006D:  BTFSS  05.1
....................       { 
006E:  GOTO   06D
....................       } 
.................... output_d(0);  
006F:  BSF    03.5
0070:  CLRF   08
0071:  BCF    03.5
0072:  CLRF   08
.................... } 
....................  
.................... if(input(pin_A2) == FALSE) 
0073:  BTFSC  05.2
0074:  GOTO   07F
.................... { 
.................... output_high(pin_D1); 
0075:  BSF    03.5
0076:  BCF    08.1
0077:  BCF    03.5
0078:  BSF    08.1
.................... while(!(input(pin_A2)))  //sensor 1 olana kadar islem yapma 
0079:  BTFSS  05.2
....................       { 
007A:  GOTO   079
....................       } 
.................... output_d(0);  
007B:  BSF    03.5
007C:  CLRF   08
007D:  BCF    03.5
007E:  CLRF   08
....................  
.................... } 
007F:  GOTO   03B
....................  
.................... } 
.................... } 
0080:  SLEEP

Configuration Fuses:
   Word  1: 3F39   XT NOWDT NOPUT NOBROWNOUT NOLVP NOCPD NOWRT NODEBUG NOPROTECT
